target datalayout = "e-m:e-p270:32:32-p271:32:32-p272:64:64-i64:64-i128:128-f80:128-n8:16:32:64-S128"
target triple = "x86_64-pc-linux-gnu"

%struct.AVRational = type { i32, i32 }
%struct.AVPacket = type { ptr, i64, i64, ptr, i32, i32, i32, ptr, i32, i64, i64, ptr, ptr, %struct.AVRational }

; Function Attrs: nounwind uwtable
define internal i32 @webm_reformat_vtt(ptr noundef %0, ptr noundef %1, ptr noundef %2, ptr noundef %3) #0 {
  %5 = alloca i32, align 4
  %6 = alloca ptr, align 8
  %7 = alloca ptr, align 8
  %8 = alloca ptr, align 8
  %9 = alloca ptr, align 8
  %10 = alloca ptr, align 8
  %11 = alloca ptr, align 8
  %12 = alloca i64, align 8
  %13 = alloca i64, align 8
  %14 = alloca i32, align 4
  %15 = alloca i32, align 4
  store ptr %0, ptr %6, align 8, !tbaa !26
  store ptr %1, ptr %7, align 8, !tbaa !29
  store ptr %2, ptr %8, align 8, !tbaa !76
  store ptr %3, ptr %9, align 8, !tbaa !265
  call void @llvm.lifetime.start.p0(i64 8, ptr %10) #16
  call void @llvm.lifetime.start.p0(i64 8, ptr %11) #16
  call void @llvm.lifetime.start.p0(i64 8, ptr %12) #16
  call void @llvm.lifetime.start.p0(i64 8, ptr %13) #16
  call void @llvm.lifetime.start.p0(i64 4, ptr %14) #16
  %16 = load ptr, ptr %8, align 8, !tbaa !76
  %17 = getelementptr inbounds nuw %struct.AVPacket, ptr %16, i32 0, i32 4
  %18 = load i32, ptr %17, align 8, !tbaa !78
  %19 = add i32 %18, 2
  store i32 %19, ptr %14, align 4, !tbaa !30
  %20 = load i32, ptr %14, align 4, !tbaa !30
  %21 = icmp ugt i32 %20, 2147483647
  br i1 %21, label %22, label %23

22:                                               ; preds = %4
  store i32 -34, ptr %5, align 4
  store i32 1, ptr %15, align 4
  br label %72

23:                                               ; preds = %4
  %24 = load ptr, ptr %8, align 8, !tbaa !76
  %25 = call ptr @av_packet_get_side_data(ptr noundef %24, i32 noundef 16, ptr noundef %12)
  store ptr %25, ptr %10, align 8, !tbaa !134
  %26 = load ptr, ptr %8, align 8, !tbaa !76
  %27 = call ptr @av_packet_get_side_data(ptr noundef %26, i32 noundef 17, ptr noundef %13)
  store ptr %27, ptr %11, align 8, !tbaa !134
  %28 = load i64, ptr %12, align 8, !tbaa !79
  %29 = load i32, ptr %14, align 4, !tbaa !30
  %30 = sub i32 2147483647, %29
  %31 = zext i32 %30 to i64
  %32 = icmp ugt i64 %28, %31
  br i1 %32, label %43, label %33

33:                                               ; preds = %23
  %34 = load i64, ptr %13, align 8, !tbaa !79
  %35 = load i64, ptr %12, align 8, !tbaa !79
  %36 = load i32, ptr %14, align 4, !tbaa !30
  %37 = zext i32 %36 to i64
  %38 = add i64 %37, %35
  %39 = trunc i64 %38 to i32
  store i32 %39, ptr %14, align 4, !tbaa !30
  %40 = sub i32 2147483647, %39
  %41 = zext i32 %40 to i64
  %42 = icmp ugt i64 %34, %41
  br i1 %42, label %43, label %44

43:                                               ; preds = %33, %23
  store i32 -34, ptr %5, align 4
  store i32 1, ptr %15, align 4
  br label %72

44:                                               ; preds = %33
  %45 = load i64, ptr %13, align 8, !tbaa !79
  %46 = load i32, ptr %14, align 4, !tbaa !30
  %47 = zext i32 %46 to i64
  %48 = add i64 %47, %45
  %49 = trunc i64 %48 to i32
  store i32 %49, ptr %14, align 4, !tbaa !30
  %50 = load ptr, ptr %9, align 8, !tbaa !265
  store i32 %49, ptr %50, align 4, !tbaa !30
  %51 = load ptr, ptr %7, align 8, !tbaa !29
  %52 = icmp ne ptr %51, null
  br i1 %52, label %53, label %71

53:                                               ; preds = %44
  %54 = load ptr, ptr %7, align 8, !tbaa !29
  %55 = load ptr, ptr %10, align 8, !tbaa !134
  %56 = load i64, ptr %12, align 8, !tbaa !79
  %57 = trunc i64 %56 to i32
  call void @avio_write(ptr noundef %54, ptr noundef %55, i32 noundef %57)
  %58 = load ptr, ptr %7, align 8, !tbaa !29
  call void @avio_w8(ptr noundef %58, i32 noundef 10)
  %59 = load ptr, ptr %7, align 8, !tbaa !29
  %60 = load ptr, ptr %11, align 8, !tbaa !134
  %61 = load i64, ptr %13, align 8, !tbaa !79
  %62 = trunc i64 %61 to i32
  call void @avio_write(ptr noundef %59, ptr noundef %60, i32 noundef %62)
  %63 = load ptr, ptr %7, align 8, !tbaa !29
  call void @avio_w8(ptr noundef %63, i32 noundef 10)
  %64 = load ptr, ptr %7, align 8, !tbaa !29
  %65 = load ptr, ptr %8, align 8, !tbaa !76
  %66 = getelementptr inbounds nuw %struct.AVPacket, ptr %65, i32 0, i32 3
  %67 = load ptr, ptr %66, align 8, !tbaa !132
  %68 = load ptr, ptr %8, align 8, !tbaa !76
  %69 = getelementptr inbounds nuw %struct.AVPacket, ptr %68, i32 0, i32 4
  %70 = load i32, ptr %69, align 8, !tbaa !78
  call void @avio_write(ptr noundef %64, ptr noundef %67, i32 noundef %70)
  br label %71

71:                                               ; preds = %53, %44
  store i32 0, ptr %5, align 4
  store i32 1, ptr %15, align 4
  br label %72

72:                                               ; preds = %71, %43, %22
  call void @llvm.lifetime.end.p0(i64 4, ptr %14) #16
  call void @llvm.lifetime.end.p0(i64 8, ptr %13) #16
  call void @llvm.lifetime.end.p0(i64 8, ptr %12) #16
  call void @llvm.lifetime.end.p0(i64 8, ptr %11) #16
  call void @llvm.lifetime.end.p0(i64 8, ptr %10) #16
  %73 = load i32, ptr %5, align 4
  ret i32 %73
}