; Function Attrs: nounwind uwtable
define internal range(i32 -34, 1) i32 @webm_reformat_vtt(ptr readnone captures(none) %0, ptr noundef %1, ptr noundef %2, ptr noundef writeonly captures(none) %3) #0 {
  %5 = alloca i64, align 8
  %6 = alloca i64, align 8
  call void @llvm.lifetime.start.p0(i64 8, ptr nonnull %5) #14
  call void @llvm.lifetime.start.p0(i64 8, ptr nonnull %6) #14
  %7 = getelementptr inbounds nuw i8, ptr %2, i64 32
  %8 = load i32, ptr %7, align 8, !tbaa !212
  %9 = add i32 %8, 2
  %10 = icmp slt i32 %9, 0
  br i1 %10, label %34, label %11

11:                                               ; preds = %4
  %12 = call ptr @av_packet_get_side_data(ptr noundef nonnull %2, i32 noundef 16, ptr noundef nonnull %5) #14
  %13 = call ptr @av_packet_get_side_data(ptr noundef nonnull %2, i32 noundef 17, ptr noundef nonnull %6) #14
  %14 = load i64, ptr %5, align 8, !tbaa !64
  %15 = sub nsw i32 2147483645, %8
  %16 = zext nneg i32 %15 to i64
  %17 = icmp ugt i64 %14, %16
  br i1 %17, label %34, label %18

18:                                               ; preds = %11
  %19 = load i64, ptr %6, align 8, !tbaa !64
  %20 = trunc nuw nsw i64 %14 to i32
  %21 = add nuw i32 %9, %20
  %22 = sub i32 2147483647, %21
  %23 = zext i32 %22 to i64
  %24 = icmp ugt i64 %19, %23
  br i1 %24, label %34, label %25

25:                                               ; preds = %18
  %26 = trunc nuw i64 %19 to i32
  %27 = add i32 %21, %26
  store i32 %27, ptr %3, align 4, !tbaa !139
  %.not = icmp eq ptr %1, null
  br i1 %.not, label %34, label %28

28:                                               ; preds = %25
  call void @avio_write(ptr noundef nonnull %1, ptr noundef %12, i32 noundef %20) #14
  call void @avio_w8(ptr noundef nonnull %1, i32 noundef 10) #14
  %29 = load i64, ptr %6, align 8, !tbaa !64
  %30 = trunc i64 %29 to i32
  call void @avio_write(ptr noundef nonnull %1, ptr noundef %13, i32 noundef %30) #14
  call void @avio_w8(ptr noundef nonnull %1, i32 noundef 10) #14
  %31 = getelementptr inbounds nuw i8, ptr %2, i64 24
  %32 = load ptr, ptr %31, align 8, !tbaa !248
  %33 = load i32, ptr %7, align 8, !tbaa !212
  call void @avio_write(ptr noundef nonnull %1, ptr noundef %32, i32 noundef %33) #14
  br label %34

34:                                               ; preds = %25, %28, %11, %18, %4
  %.0 = phi i32 [ -34, %4 ], [ -34, %18 ], [ -34, %11 ], [ 0, %28 ], [ 0, %25 ]
  call void @llvm.lifetime.end.p0(i64 8, ptr nonnull %6) #14
  call void @llvm.lifetime.end.p0(i64 8, ptr nonnull %5) #14
  ret i32 %.0
}